target datalayout = "e-m:e-p270:32:32-p271:32:32-p272:64:64-i64:64-i128:128-f80:128-n8:16:32:64-S128"
target triple = "x86_64-pc-linux-gnu"

%struct.expert_field = type { i32, i32 }
%struct.ansi_a_shared_data_t = type { ptr, ptr, ptr, i8, i8, %struct._address, i32, %struct.e_in6_addr, i16, i8 }
%struct._address = type { i32, i32, ptr, ptr }
%struct.e_in6_addr = type { [16 x i8] }

@.str.275 = private unnamed_addr constant [9 x i8] c"Reserved\00", align 1
@.str.282 = private unnamed_addr constant [1 x i8] zeroinitializer, align 1
@ei_ansi_a_extraneous_data = internal global %struct.expert_field zeroinitializer, align 4
@hf_ansi_a_length = internal global i32 0, align 4
@hf_ansi_a_extension_8_80 = internal global i32 0, align 4
@hf_ansi_a_enc_info_enc_parm_id = internal global i32 0, align 4
@hf_ansi_a_enc_info_status = internal global i32 0, align 4
@hf_ansi_a_enc_info_available = internal global i32 0, align 4
@hf_ansi_a_encryption_parameter_value = internal global i32 0, align 4
@ei_ansi_a_short_data = internal global %struct.expert_field zeroinitializer, align 4
@ett_ansi_enc_info = internal global i32 0, align 4
@.str.1149 = private unnamed_addr constant [2 x i8] c"s\00", align 1
@.str.1161 = private unnamed_addr constant [30 x i8] c"Encryption Info [%u]: %s (%u)\00", align 1
@.str.1162 = private unnamed_addr constant [15 x i8] c" - %u record%s\00", align 1

; Function Attrs: null_pointer_is_valid sspstrong uwtable
define internal zeroext i8 @elem_enc_info(ptr noundef %0, ptr noundef %1, ptr noundef %2, i32 noundef %3, i32 noundef %4, ptr noundef %5) #1 {
  %7 = alloca i8, align 1
  %8 = alloca ptr, align 8
  %9 = alloca ptr, align 8
  %10 = alloca ptr, align 8
  %11 = alloca i32, align 4
  %12 = alloca i32, align 4
  %13 = alloca ptr, align 8
  %14 = alloca i8, align 1
  %15 = alloca i32, align 4
  %16 = alloca i32, align 4
  %17 = alloca i8, align 1
  %18 = alloca ptr, align 8
  %19 = alloca ptr, align 8
  %20 = alloca i32, align 4
  store ptr %0, ptr %8, align 8
  store ptr %1, ptr %9, align 8
  store ptr %2, ptr %10, align 8
  store i32 %3, ptr %11, align 4
  store i32 %4, ptr %12, align 4
  store ptr %5, ptr %13, align 8
  call void @llvm.lifetime.start.p0(i64 1, ptr %14) #8
  call void @llvm.lifetime.start.p0(i64 4, ptr %15) #8
  call void @llvm.lifetime.start.p0(i64 4, ptr %16) #8
  call void @llvm.lifetime.start.p0(i64 1, ptr %17) #8
  call void @llvm.lifetime.start.p0(i64 8, ptr %18) #8
  call void @llvm.lifetime.start.p0(i64 8, ptr %19) #8
  %21 = load i32, ptr %11, align 4
  store i32 %21, ptr %15, align 4
  store i8 0, ptr %17, align 1
  br label %22

22:                                               ; preds = %137, %6
  %23 = load i32, ptr %12, align 4
  %24 = load i32, ptr %15, align 4
  %25 = load i32, ptr %11, align 4
  %26 = sub i32 %24, %25
  %27 = sub i32 %23, %26
  %28 = icmp uge i32 %27, 2
  br i1 %28, label %29, label %144

29:                                               ; preds = %22
  %30 = load i32, ptr %15, align 4
  store i32 %30, ptr %16, align 4
  %31 = load ptr, ptr %8, align 8
  %32 = load i32, ptr %15, align 4
  %33 = call zeroext i8 @tvb_get_uint8(ptr noundef %31, i32 noundef %32)
  store i8 %33, ptr %14, align 1
  %34 = load ptr, ptr %10, align 8
  %35 = load ptr, ptr %8, align 8
  %36 = load i32, ptr %15, align 4
  %37 = load i32, ptr @ett_ansi_enc_info, align 4
  %38 = load i8, ptr %17, align 1
  %39 = zext i8 %38 to i32
  %40 = add i32 %39, 1
  %41 = load i8, ptr %14, align 1
  %42 = zext i8 %41 to i32
  %43 = and i32 %42, 124
  %44 = ashr i32 %43, 2
  %45 = call ptr @val_to_str_const(i32 noundef %44, ptr noundef @ansi_a_enc_info_ident_vals, ptr noundef @.str.275)
  %46 = load i8, ptr %14, align 1
  %47 = zext i8 %46 to i32
  %48 = and i32 %47, 124
  %49 = ashr i32 %48, 2
  %50 = call ptr (ptr, ptr, i32, i32, i32, ptr, ptr, ...) @proto_tree_add_subtree_format(ptr noundef %34, ptr noundef %35, i32 noundef %36, i32 noundef -1, i32 noundef %37, ptr noundef %18, ptr noundef @.str.1161, i32 noundef %40, ptr noundef %45, i32 noundef %49)
  store ptr %50, ptr %19, align 8
  %51 = load ptr, ptr %19, align 8
  %52 = load i32, ptr @hf_ansi_a_extension_8_80, align 4
  %53 = load ptr, ptr %8, align 8
  %54 = load i32, ptr %15, align 4
  %55 = call ptr @proto_tree_add_item(ptr noundef %51, i32 noundef %52, ptr noundef %53, i32 noundef %54, i32 noundef 1, i32 noundef 0)
  %56 = load ptr, ptr %19, align 8
  %57 = load i32, ptr @hf_ansi_a_enc_info_enc_parm_id, align 4
  %58 = load ptr, ptr %8, align 8
  %59 = load i32, ptr %15, align 4
  %60 = call ptr @proto_tree_add_item(ptr noundef %56, i32 noundef %57, ptr noundef %58, i32 noundef %59, i32 noundef 1, i32 noundef 0)
  %61 = load ptr, ptr %19, align 8
  %62 = load i32, ptr @hf_ansi_a_enc_info_status, align 4
  %63 = load ptr, ptr %8, align 8
  %64 = load i32, ptr %15, align 4
  %65 = call ptr @proto_tree_add_item(ptr noundef %61, i32 noundef %62, ptr noundef %63, i32 noundef %64, i32 noundef 1, i32 noundef 0)
  %66 = load ptr, ptr %19, align 8
  %67 = load i32, ptr @hf_ansi_a_enc_info_available, align 4
  %68 = load ptr, ptr %8, align 8
  %69 = load i32, ptr %15, align 4
  %70 = call ptr @proto_tree_add_item(ptr noundef %66, i32 noundef %67, ptr noundef %68, i32 noundef %69, i32 noundef 1, i32 noundef 0)
  %71 = load i32, ptr %15, align 4
  %72 = add i32 %71, 1
  store i32 %72, ptr %15, align 4
  %73 = load i8, ptr %14, align 1
  %74 = zext i8 %73 to i32
  %75 = and i32 %74, 128
  %76 = icmp ne i32 %75, 0
  br i1 %76, label %77, label %137

77:                                               ; preds = %29
  %78 = load ptr, ptr %8, align 8
  %79 = load i32, ptr %15, align 4
  %80 = call zeroext i8 @tvb_get_uint8(ptr noundef %78, i32 noundef %79)
  store i8 %80, ptr %14, align 1
  %81 = load ptr, ptr %19, align 8
  %82 = load i32, ptr @hf_ansi_a_length, align 4
  %83 = load ptr, ptr %8, align 8
  %84 = load i32, ptr %15, align 4
  %85 = load i8, ptr %14, align 1
  %86 = zext i8 %85 to i32
  %87 = call ptr @proto_tree_add_uint(ptr noundef %81, i32 noundef %82, ptr noundef %83, i32 noundef %84, i32 noundef 1, i32 noundef %86)
  %88 = load i32, ptr %15, align 4
  %89 = add i32 %88, 1
  store i32 %89, ptr %15, align 4
  %90 = load i8, ptr %14, align 1
  %91 = zext i8 %90 to i32
  %92 = icmp sgt i32 %91, 0
  br i1 %92, label %93, label %136

93:                                               ; preds = %77
  %94 = load i32, ptr %12, align 4
  %95 = load i32, ptr %15, align 4
  %96 = load i32, ptr %11, align 4
  %97 = sub i32 %95, %96
  %98 = sub i32 %94, %97
  %99 = load i8, ptr %14, align 1
  %100 = zext i8 %99 to i32
  %101 = icmp ult i32 %98, %100
  br i1 %101, label %102, label %124

102:                                              ; preds = %93
  %103 = load ptr, ptr %10, align 8
  %104 = load ptr, ptr %9, align 8
  %105 = load ptr, ptr %8, align 8
  %106 = load i32, ptr %15, align 4
  %107 = load i32, ptr %12, align 4
  %108 = load i32, ptr %15, align 4
  %109 = load i32, ptr %11, align 4
  %110 = sub i32 %108, %109
  %111 = sub i32 %107, %110
  %112 = call ptr @proto_tree_add_expert(ptr noundef %103, ptr noundef %104, ptr noundef @ei_ansi_a_short_data, ptr noundef %105, i32 noundef %106, i32 noundef %111)
  %113 = load i32, ptr %12, align 4
  %114 = load i32, ptr %15, align 4
  %115 = load i32, ptr %11, align 4
  %116 = sub i32 %114, %115
  %117 = sub i32 %113, %116
  %118 = load i32, ptr %15, align 4
  %119 = add i32 %118, %117
  store i32 %119, ptr %15, align 4
  %120 = load i32, ptr %15, align 4
  %121 = load i32, ptr %11, align 4
  %122 = sub i32 %120, %121
  %123 = trunc i32 %122 to i8
  store i8 %123, ptr %7, align 1
  store i32 1, ptr %20, align 4
  br label %182

124:                                              ; preds = %93
  %125 = load ptr, ptr %19, align 8
  %126 = load i32, ptr @hf_ansi_a_encryption_parameter_value, align 4
  %127 = load ptr, ptr %8, align 8
  %128 = load i32, ptr %15, align 4
  %129 = load i8, ptr %14, align 1
  %130 = zext i8 %129 to i32
  %131 = call ptr @proto_tree_add_item(ptr noundef %125, i32 noundef %126, ptr noundef %127, i32 noundef %128, i32 noundef %130, i32 noundef 0)
  %132 = load i8, ptr %14, align 1
  %133 = zext i8 %132 to i32
  %134 = load i32, ptr %15, align 4
  %135 = add i32 %134, %133
  store i32 %135, ptr %15, align 4
  br label %136

136:                                              ; preds = %124, %77
  br label %137

137:                                              ; preds = %136, %29
  %138 = load ptr, ptr %18, align 8
  %139 = load i32, ptr %15, align 4
  %140 = load i32, ptr %16, align 4
  %141 = sub i32 %139, %140
  call void @proto_item_set_len(ptr noundef %138, i32 noundef %141)
  %142 = load i8, ptr %17, align 1
  %143 = add i8 %142, 1
  store i8 %143, ptr %17, align 1
  br label %22, !llvm.loop !23

144:                                              ; preds = %22
  %145 = load ptr, ptr %13, align 8
  %146 = getelementptr inbounds nuw %struct.ansi_a_shared_data_t, ptr %145, i32 0, i32 2
  %147 = load ptr, ptr %146, align 8
  %148 = load i8, ptr %17, align 1
  %149 = zext i8 %148 to i32
  %150 = load i8, ptr %17, align 1
  %151 = zext i8 %150 to i32
  %152 = icmp eq i32 %151, 1
  %153 = select i1 %152, ptr @.str.282, ptr @.str.1149
  call void (ptr, ptr, ...) @proto_item_append_text(ptr noundef %147, ptr noundef @.str.1162, i32 noundef %149, ptr noundef %153)
  %154 = load i32, ptr %12, align 4
  %155 = load i32, ptr %15, align 4
  %156 = load i32, ptr %11, align 4
  %157 = sub i32 %155, %156
  %158 = icmp ugt i32 %154, %157
  br i1 %158, label %159, label %177

159:                                              ; preds = %144
  %160 = load ptr, ptr %10, align 8
  %161 = load ptr, ptr %9, align 8
  %162 = load ptr, ptr %8, align 8
  %163 = load i32, ptr %15, align 4
  %164 = load i32, ptr %12, align 4
  %165 = load i32, ptr %15, align 4
  %166 = load i32, ptr %11, align 4
  %167 = sub i32 %165, %166
  %168 = sub i32 %164, %167
  %169 = call ptr @proto_tree_add_expert(ptr noundef %160, ptr noundef %161, ptr noundef @ei_ansi_a_extraneous_data, ptr noundef %162, i32 noundef %163, i32 noundef %168)
  %170 = load i32, ptr %12, align 4
  %171 = load i32, ptr %15, align 4
  %172 = load i32, ptr %11, align 4
  %173 = sub i32 %171, %172
  %174 = sub i32 %170, %173
  %175 = load i32, ptr %15, align 4
  %176 = add i32 %175, %174
  store i32 %176, ptr %15, align 4
  br label %177

177:                                              ; preds = %159, %144
  %178 = load i32, ptr %15, align 4
  %179 = load i32, ptr %11, align 4
  %180 = sub i32 %178, %179
  %181 = trunc i32 %180 to i8
  store i8 %181, ptr %7, align 1
  store i32 1, ptr %20, align 4
  br label %182

182:                                              ; preds = %177, %102
  call void @llvm.lifetime.end.p0(i64 8, ptr %19) #8
  call void @llvm.lifetime.end.p0(i64 8, ptr %18) #8
  call void @llvm.lifetime.end.p0(i64 1, ptr %17) #8
  call void @llvm.lifetime.end.p0(i64 4, ptr %16) #8
  call void @llvm.lifetime.end.p0(i64 4, ptr %15) #8
  call void @llvm.lifetime.end.p0(i64 1, ptr %14) #8
  %183 = load i8, ptr %7, align 1
  ret i8 %183
}