; Function Attrs: null_pointer_is_valid sspstrong uwtable
define internal zeroext i8 @elem_enc_info(ptr noundef %0, ptr noundef %1, ptr noundef %2, i32 noundef %3, i32 noundef %4, ptr noundef readonly captures(none) %5) #1 {
  %7 = alloca ptr, align 8
  call void @llvm.lifetime.start.p0(i64 8, ptr nonnull %7) #7
  %8 = icmp ugt i32 %4, 1
  br i1 %8, label %.lr.ph, label %._crit_edge.thread

.lr.ph:                                           ; preds = %6, %42
  %.08094 = phi i8 [ %45, %42 ], [ 0, %6 ]
  %.08193 = phi i32 [ %.1, %42 ], [ %3, %6 ]
  %9 = call zeroext i8 @tvb_get_uint8(ptr noundef %0, i32 noundef %.08193)
  %10 = load i32, ptr @ett_ansi_enc_info, align 4
  %11 = zext i8 %.08094 to i32
  %12 = add nuw nsw i32 %11, 1
  %13 = lshr i8 %9, 2
  %14 = and i8 %13, 31
  %15 = zext nneg i8 %14 to i32
  %16 = call ptr @val_to_str_const(i32 noundef %15, ptr noundef nonnull @ansi_a_enc_info_ident_vals, ptr noundef nonnull @.str.275)
  %17 = call ptr (ptr, ptr, i32, i32, i32, ptr, ptr, ...) @proto_tree_add_subtree_format(ptr noundef %2, ptr noundef %0, i32 noundef %.08193, i32 noundef -1, i32 noundef %10, ptr noundef nonnull %7, ptr noundef nonnull @.str.1161, i32 noundef %12, ptr noundef %16, i32 noundef %15)
  %18 = load i32, ptr @hf_ansi_a_extension_8_80, align 4
  %19 = call ptr @proto_tree_add_item(ptr noundef %17, i32 noundef %18, ptr noundef %0, i32 noundef %.08193, i32 noundef 1, i32 noundef 0)
  %20 = load i32, ptr @hf_ansi_a_enc_info_enc_parm_id, align 4
  %21 = call ptr @proto_tree_add_item(ptr noundef %17, i32 noundef %20, ptr noundef %0, i32 noundef %.08193, i32 noundef 1, i32 noundef 0)
  %22 = load i32, ptr @hf_ansi_a_enc_info_status, align 4
  %23 = call ptr @proto_tree_add_item(ptr noundef %17, i32 noundef %22, ptr noundef %0, i32 noundef %.08193, i32 noundef 1, i32 noundef 0)
  %24 = load i32, ptr @hf_ansi_a_enc_info_available, align 4
  %25 = call ptr @proto_tree_add_item(ptr noundef %17, i32 noundef %24, ptr noundef %0, i32 noundef %.08193, i32 noundef 1, i32 noundef 0)
  %26 = add i32 %.08193, 1
  %.not = icmp sgt i8 %9, -1
  br i1 %.not, label %42, label %27

27:                                               ; preds = %.lr.ph
  %28 = call zeroext i8 @tvb_get_uint8(ptr noundef %0, i32 noundef %26)
  %29 = load i32, ptr @hf_ansi_a_length, align 4
  %30 = zext i8 %28 to i32
  %31 = call ptr @proto_tree_add_uint(ptr noundef %17, i32 noundef %29, ptr noundef %0, i32 noundef %26, i32 noundef 1, i32 noundef %30)
  %32 = add i32 %.08193, 2
  %.not85 = icmp eq i8 %28, 0
  br i1 %.not85, label %42, label %33

33:                                               ; preds = %27
  %.neg = sub i32 %3, %32
  %34 = add i32 %.neg, %4
  %35 = icmp ult i32 %34, %30
  br i1 %35, label %36, label %38

36:                                               ; preds = %33
  %37 = call ptr @proto_tree_add_expert(ptr noundef %2, ptr noundef %1, ptr noundef nonnull @ei_ansi_a_short_data, ptr noundef %0, i32 noundef %32, i32 noundef %34)
  br label %60

38:                                               ; preds = %33
  %39 = load i32, ptr @hf_ansi_a_encryption_parameter_value, align 4
  %40 = call ptr @proto_tree_add_item(ptr noundef %17, i32 noundef %39, ptr noundef %0, i32 noundef %32, i32 noundef %30, i32 noundef 0)
  %41 = add i32 %32, %30
  br label %42

42:                                               ; preds = %27, %38, %.lr.ph
  %.1 = phi i32 [ %41, %38 ], [ %32, %27 ], [ %26, %.lr.ph ]
  %43 = load ptr, ptr %7, align 8
  %44 = sub i32 %.1, %.08193
  call void @proto_item_set_len(ptr noundef %43, i32 noundef %44)
  %45 = add i8 %.08094, 1
  %46 = sub i32 %.1, %3
  %47 = sub i32 %4, %46
  %48 = icmp ugt i32 %47, 1
  br i1 %48, label %.lr.ph, label %._crit_edge, !llvm.loop !24

._crit_edge:                                      ; preds = %42
  %49 = zext i8 %45 to i32
  %50 = icmp eq i8 %.08094, 0
  %spec.select = select i1 %50, ptr @.str.282, ptr @.str.1149
  br label %._crit_edge.thread

._crit_edge.thread:                               ; preds = %6, %._crit_edge
  %51 = phi i32 [ %49, %._crit_edge ], [ 0, %6 ]
  %.lcssa110 = phi i32 [ %47, %._crit_edge ], [ %4, %6 ]
  %.lcssa87109 = phi i32 [ %46, %._crit_edge ], [ 0, %6 ]
  %.081.lcssa108 = phi i32 [ %.1, %._crit_edge ], [ %3, %6 ]
  %52 = phi ptr [ %spec.select, %._crit_edge ], [ @.str.1149, %6 ]
  %.in = getelementptr inbounds nuw i8, ptr %5, i64 16
  %53 = load ptr, ptr %.in, align 8
  call void (ptr, ptr, ...) @proto_item_append_text(ptr noundef %53, ptr noundef nonnull @.str.1162, i32 noundef %51, ptr noundef nonnull %52)
  %54 = icmp ugt i32 %4, %.lcssa87109
  br i1 %54, label %55, label %58

55:                                               ; preds = %._crit_edge.thread
  %56 = call ptr @proto_tree_add_expert(ptr noundef %2, ptr noundef %1, ptr noundef nonnull @ei_ansi_a_extraneous_data, ptr noundef %0, i32 noundef %.081.lcssa108, i32 noundef %.lcssa110)
  %57 = add i32 %.lcssa110, %.081.lcssa108
  br label %58

58:                                               ; preds = %55, %._crit_edge.thread
  %.2 = phi i32 [ %57, %55 ], [ %.081.lcssa108, %._crit_edge.thread ]
  %59 = sub i32 %.2, %3
  br label %60

60:                                               ; preds = %58, %36
  %.0.in = phi i32 [ %4, %36 ], [ %59, %58 ]
  %.0 = trunc i32 %.0.in to i8
  call void @llvm.lifetime.end.p0(i64 8, ptr nonnull %7) #7
  ret i8 %.0
}